; ModuleID = '10/1344.c'
source_filename = "10/1344.c"
target datalayout = "e-m:e-p270:32:32-p271:32:32-p272:64:64-i64:64-f80:128-n8:16:32:64-S128"
target triple = "x86_64-pc-linux-gnu"

@s = dso_local global [30 x i32] [i32 1, i32 1, i32 1, i32 1, i32 1, i32 1, i32 1, i32 1, i32 1, i32 1, i32 1, i32 1, i32 1, i32 1, i32 1, i32 1, i32 1, i32 1, i32 1, i32 1, i32 1, i32 1, i32 1, i32 1, i32 1, i32 1, i32 1, i32 1, i32 1, i32 1], align 16
@.str = private unnamed_addr constant [3 x i8] c"%d\00", align 1
@.str.1 = private unnamed_addr constant [4 x i8] c"%d\0A\00", align 1

; Function Attrs: noinline nounwind uwtable
define dso_local void @main() #0 {
  %1 = alloca [100 x i32], align 16
  %2 = alloca i32, align 4
  %3 = alloca i32, align 4
  %4 = alloca i32, align 4
  %5 = call i32 (i8*, ...) @__isoc99_scanf(i8* getelementptr inbounds ([3 x i8], [3 x i8]* @.str, i64 0, i64 0), i32* %2)
  %6 = load i32, i32* %2, align 4
  store i32 %6, i32* %3, align 4
  br label %7

7:                                                ; preds = %15, %0
  %8 = load i32, i32* %3, align 4
  %9 = icmp sgt i32 %8, 0
  br i1 %9, label %10, label %18

10:                                               ; preds = %7
  %11 = load i32, i32* %3, align 4
  %12 = sext i32 %11 to i64
  %13 = getelementptr inbounds [100 x i32], [100 x i32]* %1, i64 0, i64 %12
  %14 = call i32 (i8*, ...) @__isoc99_scanf(i8* getelementptr inbounds ([3 x i8], [3 x i8]* @.str, i64 0, i64 0), i32* %13)
  br label %15

15:                                               ; preds = %10
  %16 = load i32, i32* %3, align 4
  %17 = add nsw i32 %16, -1
  store i32 %17, i32* %3, align 4
  br label %7

18:                                               ; preds = %7
  %19 = load i32, i32* %2, align 4
  %20 = add nsw i32 %19, 1
  %21 = sext i32 %20 to i64
  %22 = getelementptr inbounds [100 x i32], [100 x i32]* %1, i64 0, i64 %21
  store i32 100000, i32* %22, align 4
  %23 = getelementptr inbounds [100 x i32], [100 x i32]* %1, i64 0, i64 0
  %24 = load i32, i32* %2, align 4
  %25 = add nsw i32 %24, 1
  %26 = call i32 @max(i32* %23, i32 %25)
  store i32 %26, i32* %4, align 4
  %27 = load i32, i32* %4, align 4
  %28 = sub nsw i32 %27, 1
  %29 = call i32 (i8*, ...) @printf(i8* getelementptr inbounds ([4 x i8], [4 x i8]* @.str.1, i64 0, i64 0), i32 %28)
  ret void
}

declare dso_local i32 @__isoc99_scanf(i8*, ...) #1

; Function Attrs: noinline nounwind uwtable
define dso_local i32 @max(i32* %0, i32 %1) #0 {
  %3 = alloca i32, align 4
  %4 = alloca i32*, align 8
  %5 = alloca i32, align 4
  %6 = alloca i32, align 4
  %7 = alloca i32, align 4
  %8 = alloca i32, align 4
  store i32* %0, i32** %4, align 8
  store i32 %1, i32* %5, align 4
  store i32 0, i32* %8, align 4
  %9 = load i32*, i32** %4, align 8
  %10 = load i32, i32* %5, align 4
  %11 = sext i32 %10 to i64
  %12 = getelementptr inbounds i32, i32* %9, i64 %11
  %13 = load i32, i32* %12, align 4
  store i32 %13, i32* %6, align 4
  %14 = load i32, i32* %5, align 4
  %15 = icmp eq i32 %14, 1
  br i1 %15, label %16, label %17

16:                                               ; preds = %2
  store i32 1, i32* %3, align 4
  br label %57

17:                                               ; preds = %2
  %18 = load i32, i32* %5, align 4
  %19 = sub nsw i32 %18, 1
  store i32 %19, i32* %7, align 4
  br label %20

20:                                               ; preds = %49, %17
  %21 = load i32, i32* %7, align 4
  %22 = icmp sgt i32 %21, 0
  br i1 %22, label %23, label %52

23:                                               ; preds = %20
  %24 = load i32, i32* %6, align 4
  %25 = load i32*, i32** %4, align 8
  %26 = load i32, i32* %7, align 4
  %27 = sext i32 %26 to i64
  %28 = getelementptr inbounds i32, i32* %25, i64 %27
  %29 = load i32, i32* %28, align 4
  %30 = icmp sge i32 %24, %29
  br i1 %30, label %31, label %36

31:                                               ; preds = %23
  %32 = load i32*, i32** %4, align 8
  %33 = load i32, i32* %7, align 4
  %34 = call i32 @max(i32* %32, i32 %33)
  %35 = add nsw i32 1, %34
  store i32 %35, i32* %8, align 4
  br label %36

36:                                               ; preds = %31, %23
  %37 = load i32, i32* %8, align 4
  %38 = load i32, i32* %5, align 4
  %39 = sext i32 %38 to i64
  %40 = getelementptr inbounds [30 x i32], [30 x i32]* @s, i64 0, i64 %39
  %41 = load i32, i32* %40, align 4
  %42 = icmp sgt i32 %37, %41
  br i1 %42, label %43, label %48

43:                                               ; preds = %36
  %44 = load i32, i32* %8, align 4
  %45 = load i32, i32* %5, align 4
  %46 = sext i32 %45 to i64
  %47 = getelementptr inbounds [30 x i32], [30 x i32]* @s, i64 0, i64 %46
  store i32 %44, i32* %47, align 4
  br label %48

48:                                               ; preds = %43, %36
  br label %49

49:                                               ; preds = %48
  %50 = load i32, i32* %7, align 4
  %51 = add nsw i32 %50, -1
  store i32 %51, i32* %7, align 4
  br label %20

52:                                               ; preds = %20
  %53 = load i32, i32* %5, align 4
  %54 = sext i32 %53 to i64
  %55 = getelementptr inbounds [30 x i32], [30 x i32]* @s, i64 0, i64 %54
  %56 = load i32, i32* %55, align 4
  store i32 %56, i32* %3, align 4
  br label %57

57:                                               ; preds = %52, %16
  %58 = load i32, i32* %3, align 4
  ret i32 %58
}

declare dso_local i32 @printf(i8*, ...) #1


!llvm.module.flags = !{!0}
!llvm.ident = !{!1}

!0 = !{i32 1, !"wchar_size", i32 4}
!1 = !{!"clang version 10.0.0-4ubuntu1 "}
